target datalayout = "e-m:e-p270:32:32-p271:32:32-p272:64:64-i64:64-i128:128-f80:128-n8:16:32:64-S128"
target triple = "x86_64-pc-linux-gnu"

%struct.H5VL_loc_params_t = type { i32, i32, %union.anon.0 }
%union.anon.0 = type { %struct.H5VL_loc_by_idx }
%struct.H5VL_loc_by_idx = type { ptr, i32, i32, i64, i64 }
%struct.H5VL_attr_specific_args_t = type { i32, %union.anon.4 }
%union.anon.4 = type { %struct.H5VL_attr_iterate_args_t }
%struct.H5VL_attr_iterate_args_t = type { i32, i32, ptr, ptr, ptr }
%struct.anon.5 = type { ptr }

@H5_libinit_g = external global i8, align 1
@H5_libterm_g = external global i8, align 1
@.str = private unnamed_addr constant [97 x i8] c"generated/home/dtcxzyw/WorkSpace/Projects/compilers/llvm-opt-benchmark/bench/hdf5/hdf5/src/H5A.c\00", align 1
@H5E_FUNC_g = external global i64, align 8
@H5E_CANTINIT_g = external global i64, align 8
@.str.1 = private unnamed_addr constant [30 x i8] c"library initialization failed\00", align 1
@H5E_CANTSET_g = external global i64, align 8
@.str.2 = private unnamed_addr constant [22 x i8] c"can't set API context\00", align 1
@H5E_ATTR_g = external global i64, align 8
@H5E_ARGS_g = external global i64, align 8
@H5E_BADTYPE_g = external global i64, align 8
@H5P_LST_DATASET_XFER_ID_g = external global i64, align 8
@H5E_BADVALUE_g = external global i64, align 8
@.str.43 = private unnamed_addr constant [39 x i8] c"location is not valid for an attribute\00", align 1
@.str.49 = private unnamed_addr constant [26 x i8] c"invalid object identifier\00", align 1
@__func__.H5Adelete = private unnamed_addr constant [10 x i8] c"H5Adelete\00", align 1
@.str.68 = private unnamed_addr constant [30 x i8] c"name parameter cannot be NULL\00", align 1
@.str.69 = private unnamed_addr constant [41 x i8] c"name parameter cannot be an empty string\00", align 1
@.str.70 = private unnamed_addr constant [35 x i8] c"can't set collective metadata read\00", align 1
@H5E_CANTDELETE_g = external global i64, align 8
@.str.71 = private unnamed_addr constant [27 x i8] c"unable to delete attribute\00", align 1

; Function Attrs: nounwind uwtable
define i32 @H5Adelete(i64 noundef %0, ptr noundef %1) #0 {
  %3 = alloca i64, align 8
  %4 = alloca ptr, align 8
  %5 = alloca ptr, align 8
  %6 = alloca %struct.H5VL_loc_params_t, align 8
  %7 = alloca %struct.H5VL_attr_specific_args_t, align 8
  %8 = alloca i32, align 4
  %9 = alloca i8, align 1
  %10 = alloca i8, align 1
  store i64 %0, ptr %3, align 8
  store ptr %1, ptr %4, align 8
  store ptr null, ptr %5, align 8
  store i32 0, ptr %8, align 4
  store i8 0, ptr %9, align 1
  store i8 0, ptr %10, align 1
  %11 = load i8, ptr @H5_libinit_g, align 1
  %12 = trunc i8 %11 to i1
  br i1 %12, label %17, label %13

13:                                               ; preds = %2
  %14 = load i8, ptr @H5_libterm_g, align 1
  %15 = trunc i8 %14 to i1
  %16 = xor i1 %15, true
  br label %17

17:                                               ; preds = %13, %2
  %18 = phi i1 [ false, %2 ], [ %16, %13 ]
  %19 = xor i1 %18, true
  %20 = xor i1 %19, true
  %21 = zext i1 %20 to i32
  %22 = sext i32 %21 to i64
  %23 = icmp ne i64 %22, 0
  br i1 %23, label %24, label %48

24:                                               ; preds = %17
  %25 = call i32 @H5_init_library()
  %26 = icmp slt i32 %25, 0
  %27 = xor i1 %26, true
  %28 = xor i1 %27, true
  %29 = zext i1 %28 to i32
  %30 = sext i32 %29 to i64
  %31 = icmp ne i64 %30, 0
  br i1 %31, label %32, label %47

32:                                               ; preds = %24
  br label %33

33:                                               ; preds = %32
  br label %34

34:                                               ; preds = %33
  br label %35

35:                                               ; preds = %34
  %36 = load i64, ptr @H5E_FUNC_g, align 8
  %37 = load i64, ptr @H5E_CANTINIT_g, align 8
  %38 = call i32 (ptr, ptr, i32, i64, i64, ptr, ...) @H5E_printf_stack(ptr noundef @.str, ptr noundef @__func__.H5Adelete, i32 noundef 1994, i64 noundef %36, i64 noundef %37, ptr noundef @.str.1)
  br label %39

39:                                               ; preds = %35
  store i8 1, ptr %10, align 1
  %40 = load i8, ptr %10, align 1
  %41 = trunc i8 %40 to i1
  %42 = zext i1 %41 to i8
  store i8 %42, ptr %10, align 1
  br label %43

43:                                               ; preds = %39
  br label %44

44:                                               ; preds = %43
  store i32 -1, ptr %8, align 4
  br label %196

45:                                               ; No predecessors!
  br label %46

46:                                               ; preds = %45
  br label %47

47:                                               ; preds = %46, %24
  br label %48

48:                                               ; preds = %47, %17
  %49 = call i32 @H5CX_push()
  %50 = icmp slt i32 %49, 0
  %51 = xor i1 %50, true
  %52 = xor i1 %51, true
  %53 = zext i1 %52 to i32
  %54 = sext i32 %53 to i64
  %55 = icmp ne i64 %54, 0
  br i1 %55, label %56, label %71

56:                                               ; preds = %48
  br label %57

57:                                               ; preds = %56
  br label %58

58:                                               ; preds = %57
  br label %59

59:                                               ; preds = %58
  %60 = load i64, ptr @H5E_FUNC_g, align 8
  %61 = load i64, ptr @H5E_CANTSET_g, align 8
  %62 = call i32 (ptr, ptr, i32, i64, i64, ptr, ...) @H5E_printf_stack(ptr noundef @.str, ptr noundef @__func__.H5Adelete, i32 noundef 1994, i64 noundef %60, i64 noundef %61, ptr noundef @.str.2)
  br label %63

63:                                               ; preds = %59
  store i8 1, ptr %10, align 1
  %64 = load i8, ptr %10, align 1
  %65 = trunc i8 %64 to i1
  %66 = zext i1 %65 to i8
  store i8 %66, ptr %10, align 1
  br label %67

67:                                               ; preds = %63
  br label %68

68:                                               ; preds = %67
  store i32 -1, ptr %8, align 4
  br label %196

69:                                               ; No predecessors!
  br label %70

70:                                               ; preds = %69
  br label %72

71:                                               ; preds = %48
  store i8 1, ptr %9, align 1
  br label %72

72:                                               ; preds = %71, %70
  %73 = call i32 @H5E_clear_stack()
  %74 = load i64, ptr %3, align 8
  %75 = call i32 @H5I_get_type(i64 noundef %74)
  %76 = icmp eq i32 7, %75
  br i1 %76, label %77, label %92

77:                                               ; preds = %72
  br label %78

78:                                               ; preds = %77
  br label %79

79:                                               ; preds = %78
  br label %80

80:                                               ; preds = %79
  %81 = load i64, ptr @H5E_ARGS_g, align 8
  %82 = load i64, ptr @H5E_BADTYPE_g, align 8
  %83 = call i32 (ptr, ptr, i32, i64, i64, ptr, ...) @H5E_printf_stack(ptr noundef @.str, ptr noundef @__func__.H5Adelete, i32 noundef 1998, i64 noundef %81, i64 noundef %82, ptr noundef @.str.43)
  br label %84

84:                                               ; preds = %80
  store i8 1, ptr %10, align 1
  %85 = load i8, ptr %10, align 1
  %86 = trunc i8 %85 to i1
  %87 = zext i1 %86 to i8
  store i8 %87, ptr %10, align 1
  br label %88

88:                                               ; preds = %84
  br label %89

89:                                               ; preds = %88
  store i32 -1, ptr %8, align 4
  br label %196

90:                                               ; No predecessors!
  br label %91

91:                                               ; preds = %90
  br label %92

92:                                               ; preds = %91, %72
  %93 = load ptr, ptr %4, align 8
  %94 = icmp ne ptr %93, null
  br i1 %94, label %110, label %95

95:                                               ; preds = %92
  br label %96

96:                                               ; preds = %95
  br label %97

97:                                               ; preds = %96
  br label %98

98:                                               ; preds = %97
  %99 = load i64, ptr @H5E_ARGS_g, align 8
  %100 = load i64, ptr @H5E_BADVALUE_g, align 8
  %101 = call i32 (ptr, ptr, i32, i64, i64, ptr, ...) @H5E_printf_stack(ptr noundef @.str, ptr noundef @__func__.H5Adelete, i32 noundef 2000, i64 noundef %99, i64 noundef %100, ptr noundef @.str.68)
  br label %102

102:                                              ; preds = %98
  store i8 1, ptr %10, align 1
  %103 = load i8, ptr %10, align 1
  %104 = trunc i8 %103 to i1
  %105 = zext i1 %104 to i8
  store i8 %105, ptr %10, align 1
  br label %106

106:                                              ; preds = %102
  br label %107

107:                                              ; preds = %106
  store i32 -1, ptr %8, align 4
  br label %196

108:                                              ; No predecessors!
  br label %109

109:                                              ; preds = %108
  br label %110

110:                                              ; preds = %109, %92
  %111 = load ptr, ptr %4, align 8
  %112 = load i8, ptr %111, align 1
  %113 = icmp ne i8 %112, 0
  br i1 %113, label %129, label %114

114:                                              ; preds = %110
  br label %115

115:                                              ; preds = %114
  br label %116

116:                                              ; preds = %115
  br label %117

117:                                              ; preds = %116
  %118 = load i64, ptr @H5E_ARGS_g, align 8
  %119 = load i64, ptr @H5E_BADVALUE_g, align 8
  %120 = call i32 (ptr, ptr, i32, i64, i64, ptr, ...) @H5E_printf_stack(ptr noundef @.str, ptr noundef @__func__.H5Adelete, i32 noundef 2002, i64 noundef %118, i64 noundef %119, ptr noundef @.str.69)
  br label %121

121:                                              ; preds = %117
  store i8 1, ptr %10, align 1
  %122 = load i8, ptr %10, align 1
  %123 = trunc i8 %122 to i1
  %124 = zext i1 %123 to i8
  store i8 %124, ptr %10, align 1
  br label %125

125:                                              ; preds = %121
  br label %126

126:                                              ; preds = %125
  store i32 -1, ptr %8, align 4
  br label %196

127:                                              ; No predecessors!
  br label %128

128:                                              ; preds = %127
  br label %129

129:                                              ; preds = %128, %110
  %130 = load i64, ptr %3, align 8
  %131 = call i32 @H5CX_set_loc(i64 noundef %130)
  %132 = icmp slt i32 %131, 0
  br i1 %132, label %133, label %148

133:                                              ; preds = %129
  br label %134

134:                                              ; preds = %133
  br label %135

135:                                              ; preds = %134
  br label %136

136:                                              ; preds = %135
  %137 = load i64, ptr @H5E_ATTR_g, align 8
  %138 = load i64, ptr @H5E_CANTSET_g, align 8
  %139 = call i32 (ptr, ptr, i32, i64, i64, ptr, ...) @H5E_printf_stack(ptr noundef @.str, ptr noundef @__func__.H5Adelete, i32 noundef 2006, i64 noundef %137, i64 noundef %138, ptr noundef @.str.70)
  br label %140

140:                                              ; preds = %136
  store i8 1, ptr %10, align 1
  %141 = load i8, ptr %10, align 1
  %142 = trunc i8 %141 to i1
  %143 = zext i1 %142 to i8
  store i8 %143, ptr %10, align 1
  br label %144

144:                                              ; preds = %140
  br label %145

145:                                              ; preds = %144
  store i32 -1, ptr %8, align 4
  br label %196

146:                                              ; No predecessors!
  br label %147

147:                                              ; preds = %146
  br label %148

148:                                              ; preds = %147, %129
  %149 = load i64, ptr %3, align 8
  %150 = call ptr @H5VL_vol_object(i64 noundef %149)
  store ptr %150, ptr %5, align 8
  %151 = icmp eq ptr null, %150
  br i1 %151, label %152, label %167

152:                                              ; preds = %148
  br label %153

153:                                              ; preds = %152
  br label %154

154:                                              ; preds = %153
  br label %155

155:                                              ; preds = %154
  %156 = load i64, ptr @H5E_ARGS_g, align 8
  %157 = load i64, ptr @H5E_BADTYPE_g, align 8
  %158 = call i32 (ptr, ptr, i32, i64, i64, ptr, ...) @H5E_printf_stack(ptr noundef @.str, ptr noundef @__func__.H5Adelete, i32 noundef 2010, i64 noundef %156, i64 noundef %157, ptr noundef @.str.49)
  br label %159

159:                                              ; preds = %155
  store i8 1, ptr %10, align 1
  %160 = load i8, ptr %10, align 1
  %161 = trunc i8 %160 to i1
  %162 = zext i1 %161 to i8
  store i8 %162, ptr %10, align 1
  br label %163

163:                                              ; preds = %159
  br label %164

164:                                              ; preds = %163
  store i32 -1, ptr %8, align 4
  br label %196

165:                                              ; No predecessors!
  br label %166

166:                                              ; preds = %165
  br label %167

167:                                              ; preds = %166, %148
  %168 = getelementptr inbounds %struct.H5VL_loc_params_t, ptr %6, i32 0, i32 1
  store i32 0, ptr %168, align 4
  %169 = load i64, ptr %3, align 8
  %170 = call i32 @H5I_get_type(i64 noundef %169)
  %171 = getelementptr inbounds %struct.H5VL_loc_params_t, ptr %6, i32 0, i32 0
  store i32 %170, ptr %171, align 8
  %172 = getelementptr inbounds %struct.H5VL_attr_specific_args_t, ptr %7, i32 0, i32 0
  store i32 0, ptr %172, align 8
  %173 = load ptr, ptr %4, align 8
  %174 = getelementptr inbounds %struct.H5VL_attr_specific_args_t, ptr %7, i32 0, i32 1
  %175 = getelementptr inbounds %struct.anon.5, ptr %174, i32 0, i32 0
  store ptr %173, ptr %175, align 8
  %176 = load ptr, ptr %5, align 8
  %177 = load i64, ptr @H5P_LST_DATASET_XFER_ID_g, align 8
  %178 = call i32 @H5VL_attr_specific(ptr noundef %176, ptr noundef %6, ptr noundef %7, i64 noundef %177, ptr noundef null)
  %179 = icmp slt i32 %178, 0
  br i1 %179, label %180, label %195

180:                                              ; preds = %167
  br label %181

181:                                              ; preds = %180
  br label %182

182:                                              ; preds = %181
  br label %183

183:                                              ; preds = %182
  %184 = load i64, ptr @H5E_ATTR_g, align 8
  %185 = load i64, ptr @H5E_CANTDELETE_g, align 8
  %186 = call i32 (ptr, ptr, i32, i64, i64, ptr, ...) @H5E_printf_stack(ptr noundef @.str, ptr noundef @__func__.H5Adelete, i32 noundef 2022, i64 noundef %184, i64 noundef %185, ptr noundef @.str.71)
  br label %187

187:                                              ; preds = %183
  store i8 1, ptr %10, align 1
  %188 = load i8, ptr %10, align 1
  %189 = trunc i8 %188 to i1
  %190 = zext i1 %189 to i8
  store i8 %190, ptr %10, align 1
  br label %191

191:                                              ; preds = %187
  br label %192

192:                                              ; preds = %191
  store i32 -1, ptr %8, align 4
  br label %196

193:                                              ; No predecessors!
  br label %194

194:                                              ; preds = %193
  br label %195

195:                                              ; preds = %194, %167
  br label %196

196:                                              ; preds = %195, %192, %164, %145, %126, %107, %89, %68, %44
  %197 = load i8, ptr %9, align 1
  %198 = trunc i8 %197 to i1
  %199 = xor i1 %198, true
  %200 = xor i1 %199, true
  %201 = zext i1 %200 to i32
  %202 = sext i32 %201 to i64
  %203 = icmp ne i64 %202, 0
  br i1 %203, label %204, label %206

204:                                              ; preds = %196
  %205 = call i32 @H5CX_pop(i1 noundef zeroext true)
  store i8 0, ptr %9, align 1
  br label %206

206:                                              ; preds = %204, %196
  %207 = load i8, ptr %10, align 1
  %208 = trunc i8 %207 to i1
  %209 = xor i1 %208, true
  %210 = xor i1 %209, true
  %211 = zext i1 %210 to i32
  %212 = sext i32 %211 to i64
  %213 = icmp ne i64 %212, 0
  br i1 %213, label %214, label %216

214:                                              ; preds = %206
  %215 = call i32 @H5E_dump_api_stack()
  br label %216

216:                                              ; preds = %214, %206
  %217 = load i32, ptr %8, align 4
  ret i32 %217
}