; Function Attrs: nounwind uwtable
define range(i32 -1, 1) i32 @H5Adelete(i64 noundef %0, ptr noundef %1) local_unnamed_addr #0 {
  %3 = alloca %struct.H5VL_loc_params_t, align 8
  %4 = alloca %struct.H5VL_attr_specific_args_t, align 8
  %5 = load i8, ptr @H5_libinit_g, align 1
  %6 = trunc i8 %5 to i1
  %7 = load i8, ptr @H5_libterm_g, align 1
  %8 = trunc i8 %7 to i1
  %9 = select i1 %6, i1 true, i1 %8
  br i1 %9, label %17, label %10

10:                                               ; preds = %2
  %11 = tail call i32 @H5_init_library() #4
  %12 = icmp slt i32 %11, 0
  br i1 %12, label %13, label %17

13:                                               ; preds = %10
  %14 = load i64, ptr @H5E_FUNC_g, align 8
  %15 = load i64, ptr @H5E_CANTINIT_g, align 8
  %16 = tail call i32 (ptr, ptr, i32, i64, i64, ptr, ...) @H5E_printf_stack(ptr noundef nonnull @.str, ptr noundef nonnull @__func__.H5Adelete, i32 noundef 1994, i64 noundef %14, i64 noundef %15, ptr noundef nonnull @.str.1) #4
  br label %.thread31

17:                                               ; preds = %10, %2
  %18 = tail call i32 @H5CX_push() #4
  %19 = icmp slt i32 %18, 0
  br i1 %19, label %20, label %24

20:                                               ; preds = %17
  %21 = load i64, ptr @H5E_FUNC_g, align 8
  %22 = load i64, ptr @H5E_CANTSET_g, align 8
  %23 = tail call i32 (ptr, ptr, i32, i64, i64, ptr, ...) @H5E_printf_stack(ptr noundef nonnull @.str, ptr noundef nonnull @__func__.H5Adelete, i32 noundef 1994, i64 noundef %21, i64 noundef %22, ptr noundef nonnull @.str.2) #4
  br label %.thread31

24:                                               ; preds = %17
  %25 = tail call i32 @H5E_clear_stack() #4
  %26 = tail call i32 @H5I_get_type(i64 noundef %0) #4
  %27 = icmp eq i32 %26, 7
  br i1 %27, label %28, label %32

28:                                               ; preds = %24
  %29 = load i64, ptr @H5E_ARGS_g, align 8
  %30 = load i64, ptr @H5E_BADTYPE_g, align 8
  %31 = tail call i32 (ptr, ptr, i32, i64, i64, ptr, ...) @H5E_printf_stack(ptr noundef nonnull @.str, ptr noundef nonnull @__func__.H5Adelete, i32 noundef 1998, i64 noundef %29, i64 noundef %30, ptr noundef nonnull @.str.43) #4
  br label %.thread37

32:                                               ; preds = %24
  %.not = icmp eq ptr %1, null
  br i1 %.not, label %33, label %37

33:                                               ; preds = %32
  %34 = load i64, ptr @H5E_ARGS_g, align 8
  %35 = load i64, ptr @H5E_BADVALUE_g, align 8
  %36 = tail call i32 (ptr, ptr, i32, i64, i64, ptr, ...) @H5E_printf_stack(ptr noundef nonnull @.str, ptr noundef nonnull @__func__.H5Adelete, i32 noundef 2000, i64 noundef %34, i64 noundef %35, ptr noundef nonnull @.str.68) #4
  br label %.thread37

37:                                               ; preds = %32
  %38 = load i8, ptr %1, align 1
  %.not22 = icmp eq i8 %38, 0
  br i1 %.not22, label %39, label %43

39:                                               ; preds = %37
  %40 = load i64, ptr @H5E_ARGS_g, align 8
  %41 = load i64, ptr @H5E_BADVALUE_g, align 8
  %42 = tail call i32 (ptr, ptr, i32, i64, i64, ptr, ...) @H5E_printf_stack(ptr noundef nonnull @.str, ptr noundef nonnull @__func__.H5Adelete, i32 noundef 2002, i64 noundef %40, i64 noundef %41, ptr noundef nonnull @.str.69) #4
  br label %.thread37

43:                                               ; preds = %37
  %44 = tail call i32 @H5CX_set_loc(i64 noundef %0) #4
  %45 = icmp slt i32 %44, 0
  br i1 %45, label %46, label %50

46:                                               ; preds = %43
  %47 = load i64, ptr @H5E_ATTR_g, align 8
  %48 = load i64, ptr @H5E_CANTSET_g, align 8
  %49 = tail call i32 (ptr, ptr, i32, i64, i64, ptr, ...) @H5E_printf_stack(ptr noundef nonnull @.str, ptr noundef nonnull @__func__.H5Adelete, i32 noundef 2006, i64 noundef %47, i64 noundef %48, ptr noundef nonnull @.str.70) #4
  br label %.thread37

50:                                               ; preds = %43
  %51 = tail call ptr @H5VL_vol_object(i64 noundef %0) #4
  %52 = icmp eq ptr %51, null
  br i1 %52, label %53, label %57

53:                                               ; preds = %50
  %54 = load i64, ptr @H5E_ARGS_g, align 8
  %55 = load i64, ptr @H5E_BADTYPE_g, align 8
  %56 = tail call i32 (ptr, ptr, i32, i64, i64, ptr, ...) @H5E_printf_stack(ptr noundef nonnull @.str, ptr noundef nonnull @__func__.H5Adelete, i32 noundef 2010, i64 noundef %54, i64 noundef %55, ptr noundef nonnull @.str.49) #4
  br label %.thread37

57:                                               ; preds = %50
  %58 = getelementptr inbounds i8, ptr %3, i64 4
  store i32 0, ptr %58, align 4
  %59 = tail call i32 @H5I_get_type(i64 noundef %0) #4
  store i32 %59, ptr %3, align 8
  store i32 0, ptr %4, align 8
  %60 = getelementptr inbounds i8, ptr %4, i64 8
  store ptr %1, ptr %60, align 8
  %61 = load i64, ptr @H5P_LST_DATASET_XFER_ID_g, align 8
  %62 = call i32 @H5VL_attr_specific(ptr noundef nonnull %51, ptr noundef nonnull %3, ptr noundef nonnull %4, i64 noundef %61, ptr noundef null) #4
  %63 = icmp slt i32 %62, 0
  br i1 %63, label %64, label %69

64:                                               ; preds = %57
  %65 = load i64, ptr @H5E_ATTR_g, align 8
  %66 = load i64, ptr @H5E_CANTDELETE_g, align 8
  %67 = call i32 (ptr, ptr, i32, i64, i64, ptr, ...) @H5E_printf_stack(ptr noundef nonnull @.str, ptr noundef nonnull @__func__.H5Adelete, i32 noundef 2022, i64 noundef %65, i64 noundef %66, ptr noundef nonnull @.str.71) #4
  br label %.thread37

.thread37:                                        ; preds = %33, %39, %64, %53, %46, %28
  %68 = call i32 @H5CX_pop(i1 noundef zeroext true) #4
  br label %.thread31

69:                                               ; preds = %57
  %70 = call i32 @H5CX_pop(i1 noundef zeroext true) #4
  br label %72

.thread31:                                        ; preds = %20, %13, %.thread37
  %71 = call i32 @H5E_dump_api_stack() #4
  br label %72

72:                                               ; preds = %69, %.thread31
  %.0192634 = phi i32 [ -1, %.thread31 ], [ 0, %69 ]
  ret i32 %.0192634
}